; Function Attrs: mustprogress nounwind uwtable
define hidden void @_ZN14TypeArrayKlassC2E9BasicTypeP6Symbol(ptr noundef nonnull align 8 dereferenceable(220) %0, i8 noundef zeroext %1, ptr noundef %2) unnamed_addr #0 align 2 {
  tail call void @_ZN10ArrayKlassC2EP6SymbolN5Klass9KlassKindE(ptr noundef nonnull align 8 dereferenceable(216) %0, ptr noundef %2, i32 noundef 5) #10
  store ptr getelementptr inbounds inrange(-16, 336) (i8, ptr @_ZTV14TypeArrayKlass, i64 16), ptr %0, align 8
  %4 = tail call noundef i32 @_ZN5Klass19array_layout_helperE9BasicType(i8 noundef zeroext %1) #10
  %5 = getelementptr inbounds i8, ptr %0, i64 8
  store i32 %4, ptr %5, align 8
  %6 = load i8, ptr @UseCompressedClassPointers, align 1
  %7 = trunc i8 %6 to i1
  %8 = select i1 %7, i32 16, i32 20
  %9 = and i8 %1, -2
  %or.cond.i.i.i = icmp eq i8 %9, 12
  br i1 %or.cond.i.i.i, label %10, label %_ZN12arrayOopDesc30element_type_should_be_alignedE9BasicType.exit.i.i

10:                                               ; preds = %3
  %11 = load i8, ptr @UseCompressedOops, align 1
  %12 = trunc i8 %11 to i1
  br i1 %12, label %_ZN12arrayOopDesc16max_array_lengthE9BasicType.exit, label %13

_ZN12arrayOopDesc30element_type_should_be_alignedE9BasicType.exit.i.i: ; preds = %3
  switch i8 %1, label %_ZN12arrayOopDesc16max_array_lengthE9BasicType.exit [
    i8 11, label %13
    i8 7, label %13
  ]

13:                                               ; preds = %_ZN12arrayOopDesc30element_type_should_be_alignedE9BasicType.exit.i.i, %_ZN12arrayOopDesc30element_type_should_be_alignedE9BasicType.exit.i.i, %10
  %narrow.i.i = add nuw nsw i32 %8, 7
  %14 = and i32 %narrow.i.i, 24
  br label %_ZN12arrayOopDesc16max_array_lengthE9BasicType.exit

_ZN12arrayOopDesc16max_array_lengthE9BasicType.exit: ; preds = %10, %_ZN12arrayOopDesc30element_type_should_be_alignedE9BasicType.exit.i.i, %13
  %15 = phi i32 [ %14, %13 ], [ %8, %_ZN12arrayOopDesc30element_type_should_be_alignedE9BasicType.exit.i.i ], [ %8, %10 ]
  %narrow.i = add nuw nsw i32 %15, 7
  %16 = lshr i32 %narrow.i, 3
  %17 = zext nneg i32 %16 to i64
  %18 = xor i64 %17, 2305843009213693951
  %19 = load i32, ptr @MinObjAlignment, align 4
  %20 = sub i32 0, %19
  %21 = sext i32 %20 to i64
  %22 = and i64 %18, %21
  %23 = shl nuw i64 %22, 3
  %24 = zext i8 %1 to i64
  %25 = getelementptr inbounds [20 x i32], ptr @_type2aelembytes, i64 0, i64 %24
  %26 = load i32, ptr %25, align 4
  %27 = sext i32 %26 to i64
  %28 = udiv i64 %23, %27
  %29 = icmp ugt i64 %28, 2147483647
  %30 = xor i64 %17, 2147483647
  %31 = and i64 %30, %21
  %.0.in.i = select i1 %29, i64 %31, i64 %28
  %.0.i = trunc i64 %.0.in.i to i32
  %32 = getelementptr inbounds i8, ptr %0, i64 216
  store i32 %.0.i, ptr %32, align 8
  %33 = load ptr, ptr @_ZN15ClassLoaderData27_the_null_class_loader_dataE, align 8
  %34 = getelementptr inbounds i8, ptr %0, i64 152
  store ptr %33, ptr %34, align 8
  ret void
}